; ModuleID = 'bench/openjdk/original/JPLISAssert.ll'
source_filename = "bench/openjdk/original/JPLISAssert.ll"
target datalayout = "e-m:e-p270:32:32-p271:32:32-p272:64:64-i64:64-i128:128-f80:128-n8:16:32:64-S128"
target triple = "x86_64-pc-linux-gnu"

@stderr = external local_unnamed_addr global ptr, align 8
@.str = private unnamed_addr constant [68 x i8] c"*** java.lang.instrument ASSERTION FAILED ***: \22%s\22 at %s line: %d\0A\00", align 1
@.str.1 = private unnamed_addr constant [84 x i8] c"*** java.lang.instrument ASSERTION FAILED ***: \22%s\22 with message %s at %s line: %d\0A\00", align 1

; Function Attrs: nofree nounwind uwtable
define hidden void @JPLISAssertCondition(i8 noundef zeroext %0, ptr noundef %1, ptr noundef %2, i32 noundef %3) local_unnamed_addr #0 {
  %.not = icmp eq i8 %0, 0
  br i1 %.not, label %5, label %8

5:                                                ; preds = %4
  %6 = load ptr, ptr @stderr, align 8
  %7 = tail call i32 (ptr, ptr, ...) @fprintf(ptr noundef %6, ptr noundef nonnull @.str, ptr noundef %1, ptr noundef %2, i32 noundef %3) #2
  br label %8

8:                                                ; preds = %5, %4
  ret void
}

; Function Attrs: nofree nounwind
declare noundef i32 @fprintf(ptr nocapture noundef, ptr nocapture noundef readonly, ...) local_unnamed_addr #1

; Function Attrs: nofree nounwind uwtable
define hidden void @JPLISAssertConditionWithMessage(i8 noundef zeroext %0, ptr noundef %1, ptr noundef %2, ptr noundef %3, i32 noundef %4) local_unnamed_addr #0 {
  %.not = icmp eq i8 %0, 0
  br i1 %.not, label %6, label %9

6:                                                ; preds = %5
  %7 = load ptr, ptr @stderr, align 8
  %8 = tail call i32 (ptr, ptr, ...) @fprintf(ptr noundef %7, ptr noundef nonnull @.str.1, ptr noundef %1, ptr noundef %2, ptr noundef %3, i32 noundef %4) #2
  br label %9

9:                                                ; preds = %6, %5
  ret void
}


!llvm.module.flags = !{!0, !1, !2, !3, !4, !5}

!0 = !{i32 7, !"Dwarf Version", i32 5}
!1 = !{i32 2, !"Debug Info Version", i32 3}
!2 = !{i32 1, !"wchar_size", i32 4}
!3 = !{i32 8, !"PIC Level", i32 2}
!4 = !{i32 7, !"uwtable", i32 2}
!5 = !{i32 7, !"frame-pointer", i32 2}
